target datalayout = "e-m:e-p270:32:32-p271:32:32-p272:64:64-i64:64-i128:128-f80:128-n8:16:32:64-S128"
target triple = "x86_64-pc-linux-gnu"

@.str.67 = private unnamed_addr constant [16 x i8] c"TALOS-2023-1783\00", align 1

; Function Attrs: mustprogress uwtable
define internal noundef i32 @_ZL25fstReaderVarint32WithSkipP8_IO_FILEPj(ptr noundef %0, ptr noundef %1) #0 {
  %3 = alloca ptr, align 8
  %4 = alloca ptr, align 8
  %5 = alloca i32, align 4
  %6 = alloca i32, align 4
  %7 = alloca [5 x i8], align 1
  %8 = alloca ptr, align 8
  %9 = alloca i32, align 4
  %10 = alloca i32, align 4
  store ptr %0, ptr %3, align 8, !tbaa !33
  store ptr %1, ptr %4, align 8, !tbaa !82
  call void @llvm.lifetime.start.p0(i64 4, ptr %5) #15
  store i32 5, ptr %5, align 4, !tbaa !11
  call void @llvm.lifetime.start.p0(i64 4, ptr %6) #15
  store i32 5, ptr %6, align 4, !tbaa !11
  call void @llvm.lifetime.start.p0(i64 5, ptr %7) #15
  call void @llvm.lifetime.start.p0(i64 8, ptr %8) #15
  %11 = getelementptr inbounds [5 x i8], ptr %7, i64 0, i64 0
  store ptr %11, ptr %8, align 8, !tbaa !6
  call void @llvm.lifetime.start.p0(i64 4, ptr %9) #15
  store i32 0, ptr %9, align 4, !tbaa !11
  call void @llvm.lifetime.start.p0(i64 4, ptr %10) #15
  br label %12

12:                                               ; preds = %27, %2
  %13 = load ptr, ptr %3, align 8, !tbaa !33
  %14 = call i32 @fgetc(ptr noundef %13)
  store i32 %14, ptr %10, align 4, !tbaa !11
  %15 = load i32, ptr %10, align 4, !tbaa !11
  %16 = trunc i32 %15 to i8
  %17 = load ptr, ptr %8, align 8, !tbaa !6
  %18 = getelementptr inbounds nuw i8, ptr %17, i32 1
  store ptr %18, ptr %8, align 8, !tbaa !6
  store i8 %16, ptr %17, align 1, !tbaa !34
  br label %19

19:                                               ; preds = %12
  %20 = load i32, ptr %10, align 4, !tbaa !11
  %21 = and i32 %20, 128
  %22 = icmp ne i32 %21, 0
  br i1 %22, label %23, label %27

23:                                               ; preds = %19
  %24 = load i32, ptr %6, align 4, !tbaa !11
  %25 = add nsw i32 %24, -1
  store i32 %25, ptr %6, align 4, !tbaa !11
  %26 = icmp ne i32 %25, 0
  br label %27

27:                                               ; preds = %23, %19
  %28 = phi i1 [ false, %19 ], [ %26, %23 ]
  br i1 %28, label %12, label %29, !llvm.loop !245

29:                                               ; preds = %27
  %30 = load i32, ptr %10, align 4, !tbaa !11
  %31 = and i32 %30, 128
  %32 = icmp ne i32 %31, 0
  br i1 %32, label %33, label %34

33:                                               ; preds = %29
  call void @_ZL16chk_report_abortPKc(ptr noundef @.str.67)
  br label %34

34:                                               ; preds = %33, %29
  %35 = load ptr, ptr %8, align 8, !tbaa !6
  %36 = getelementptr inbounds [5 x i8], ptr %7, i64 0, i64 0
  %37 = ptrtoint ptr %35 to i64
  %38 = ptrtoint ptr %36 to i64
  %39 = sub i64 %37, %38
  %40 = trunc i64 %39 to i32
  %41 = load ptr, ptr %4, align 8, !tbaa !82
  store i32 %40, ptr %41, align 4, !tbaa !11
  %42 = load ptr, ptr %8, align 8, !tbaa !6
  %43 = getelementptr inbounds i8, ptr %42, i32 -1
  store ptr %43, ptr %8, align 8, !tbaa !6
  br label %44

44:                                               ; preds = %57, %34
  %45 = load i32, ptr %9, align 4, !tbaa !11
  %46 = shl i32 %45, 7
  store i32 %46, ptr %9, align 4, !tbaa !11
  %47 = load ptr, ptr %8, align 8, !tbaa !6
  %48 = load i8, ptr %47, align 1, !tbaa !34
  %49 = zext i8 %48 to i32
  %50 = and i32 %49, 127
  %51 = load i32, ptr %9, align 4, !tbaa !11
  %52 = or i32 %51, %50
  store i32 %52, ptr %9, align 4, !tbaa !11
  %53 = load ptr, ptr %8, align 8, !tbaa !6
  %54 = getelementptr inbounds [5 x i8], ptr %7, i64 0, i64 0
  %55 = icmp eq ptr %53, %54
  br i1 %55, label %56, label %57

56:                                               ; preds = %44
  br label %60

57:                                               ; preds = %44
  %58 = load ptr, ptr %8, align 8, !tbaa !6
  %59 = getelementptr inbounds i8, ptr %58, i32 -1
  store ptr %59, ptr %8, align 8, !tbaa !6
  br label %44, !llvm.loop !246

60:                                               ; preds = %56
  %61 = load i32, ptr %9, align 4, !tbaa !11
  call void @llvm.lifetime.end.p0(i64 4, ptr %10) #15
  call void @llvm.lifetime.end.p0(i64 4, ptr %9) #15
  call void @llvm.lifetime.end.p0(i64 8, ptr %8) #15
  call void @llvm.lifetime.end.p0(i64 5, ptr %7) #15
  call void @llvm.lifetime.end.p0(i64 4, ptr %6) #15
  call void @llvm.lifetime.end.p0(i64 4, ptr %5) #15
  ret i32 %61
}