; Function Attrs: mustprogress nofree nounwind uwtable
define internal fastcc noundef i32 @_ZL25fstReaderVarint32WithSkipP8_IO_FILEPj(ptr noundef captures(none) %0, ptr noundef nonnull writeonly captures(none) %1) unnamed_addr #14 {
  %3 = alloca [5 x i8], align 1
  call void @llvm.lifetime.start.p0(i64 5, ptr nonnull %3) #39
  br label %4

4:                                                ; preds = %4, %2
  %.015 = phi ptr [ %3, %2 ], [ %7, %4 ]
  %.0 = phi i32 [ 5, %2 ], [ %9, %4 ]
  %5 = tail call i32 @fgetc(ptr noundef %0)
  %6 = trunc i32 %5 to i8
  %7 = getelementptr inbounds nuw i8, ptr %.015, i64 1
  store i8 %6, ptr %.015, align 1, !tbaa !6
  %8 = and i32 %5, 128
  %.not = icmp eq i32 %8, 0
  %9 = add nsw i32 %.0, -1
  %.not18 = icmp eq i32 %9, 0
  %or.cond = select i1 %.not, i1 true, i1 %.not18
  br i1 %or.cond, label %.critedge, label %4, !llvm.loop !208

.critedge:                                        ; preds = %4
  br i1 %.not, label %11, label %10

10:                                               ; preds = %.critedge
  tail call fastcc void @_ZL16chk_report_abortPKc(ptr noundef nonnull @.str.67)
  unreachable

11:                                               ; preds = %.critedge
  %12 = ptrtoint ptr %7 to i64
  %13 = ptrtoint ptr %3 to i64
  %14 = sub i64 %12, %13
  %15 = trunc i64 %14 to i32
  store i32 %15, ptr %1, align 4, !tbaa !51
  br label %16

16:                                               ; preds = %16, %11
  %.1 = phi ptr [ %.015, %11 ], [ %23, %16 ]
  %.014 = phi i32 [ 0, %11 ], [ %21, %16 ]
  %17 = shl i32 %.014, 7
  %18 = load i8, ptr %.1, align 1, !tbaa !6
  %19 = and i8 %18, 127
  %20 = zext nneg i8 %19 to i32
  %21 = or disjoint i32 %17, %20
  %22 = icmp eq ptr %.1, %3
  %23 = getelementptr inbounds i8, ptr %.1, i64 -1
  br i1 %22, label %24, label %16, !llvm.loop !209

24:                                               ; preds = %16
  call void @llvm.lifetime.end.p0(i64 5, ptr nonnull %3) #39
  ret i32 %21
}